target datalayout = "e-m:e-p270:32:32-p271:32:32-p272:64:64-i64:64-i128:128-f80:128-n8:16:32:64-S128"
target triple = "x86_64-pc-linux-gnu"

%struct.hwloc_topology = type { i32, i32, i32, ptr, ptr, i64, [20 x i32], [20 x i32], i64, i64, i32, ptr, i64, ptr, i64, [6 x %struct.hwloc_special_level_s], ptr, ptr, %struct.hwloc_binding_hooks, %struct.hwloc_topology_support, %struct.hwloc_infos_s, ptr, ptr, i32, ptr, ptr, i32, i32, ptr, i32, i32, ptr, i32, i32, i32, [5 x float], i32, ptr, ptr, i32, i32, ptr, i32, %struct.hwloc_numanode_attr_s, i32, i32, ptr, i64, i32, ptr, ptr, ptr }
%struct.hwloc_special_level_s = type { i32, ptr, ptr, ptr }
%struct.hwloc_binding_hooks = type { ptr, ptr, ptr, ptr, ptr, ptr, ptr, ptr, ptr, ptr, ptr, ptr, ptr, ptr, ptr, ptr, ptr, ptr, ptr, ptr, ptr, ptr, ptr, ptr }
%struct.hwloc_topology_support = type { ptr, ptr, ptr, ptr }
%struct.hwloc_infos_s = type { ptr, i32, i32 }
%struct.hwloc_numanode_attr_s = type { i64, i32, ptr }
%struct.hwloc_obj = type { i32, ptr, i32, ptr, i64, ptr, i32, i32, ptr, ptr, ptr, i32, ptr, ptr, i32, ptr, ptr, ptr, i32, i32, ptr, i32, ptr, i32, ptr, ptr, ptr, ptr, ptr, %struct.hwloc_infos_s, ptr, i64 }

; Function Attrs: nounwind willreturn memory(read) uwtable
define ptr @hwloc_get_obj_by_depth(ptr noundef %0, i32 noundef %1, i32 noundef %2) #1 {
  %4 = alloca ptr, align 8
  %5 = alloca ptr, align 8
  %6 = alloca i32, align 4
  %7 = alloca i32, align 4
  %8 = alloca i32, align 4
  %9 = alloca i32, align 4
  store ptr %0, ptr %5, align 8, !tbaa !3
  store i32 %1, ptr %6, align 4, !tbaa !8
  store i32 %2, ptr %7, align 4, !tbaa !8
  %10 = load i32, ptr %6, align 4, !tbaa !8
  %11 = load ptr, ptr %5, align 8, !tbaa !3
  %12 = getelementptr inbounds nuw %struct.hwloc_topology, ptr %11, i32 0, i32 1
  %13 = load i32, ptr %12, align 4, !tbaa !10
  %14 = icmp uge i32 %10, %13
  br i1 %14, label %15, label %47

15:                                               ; preds = %3
  call void @llvm.lifetime.start.p0(i64 4, ptr %8) #10
  %16 = load i32, ptr %6, align 4, !tbaa !8
  %17 = sub nsw i32 -3, %16
  store i32 %17, ptr %8, align 4, !tbaa !8
  %18 = load i32, ptr %8, align 4, !tbaa !8
  %19 = icmp ult i32 %18, 6
  br i1 %19, label %20, label %45

20:                                               ; preds = %15
  %21 = load i32, ptr %7, align 4, !tbaa !8
  %22 = load ptr, ptr %5, align 8, !tbaa !3
  %23 = getelementptr inbounds nuw %struct.hwloc_topology, ptr %22, i32 0, i32 15
  %24 = load i32, ptr %8, align 4, !tbaa !8
  %25 = zext i32 %24 to i64
  %26 = getelementptr inbounds nuw [6 x %struct.hwloc_special_level_s], ptr %23, i64 0, i64 %25
  %27 = getelementptr inbounds nuw %struct.hwloc_special_level_s, ptr %26, i32 0, i32 0
  %28 = load i32, ptr %27, align 8, !tbaa !49
  %29 = icmp ult i32 %21, %28
  br i1 %29, label %30, label %42

30:                                               ; preds = %20
  %31 = load ptr, ptr %5, align 8, !tbaa !3
  %32 = getelementptr inbounds nuw %struct.hwloc_topology, ptr %31, i32 0, i32 15
  %33 = load i32, ptr %8, align 4, !tbaa !8
  %34 = zext i32 %33 to i64
  %35 = getelementptr inbounds nuw [6 x %struct.hwloc_special_level_s], ptr %32, i64 0, i64 %34
  %36 = getelementptr inbounds nuw %struct.hwloc_special_level_s, ptr %35, i32 0, i32 1
  %37 = load ptr, ptr %36, align 8, !tbaa !51
  %38 = load i32, ptr %7, align 4, !tbaa !8
  %39 = zext i32 %38 to i64
  %40 = getelementptr inbounds nuw ptr, ptr %37, i64 %39
  %41 = load ptr, ptr %40, align 8, !tbaa !37
  br label %43

42:                                               ; preds = %20
  br label %43

43:                                               ; preds = %42, %30
  %44 = phi ptr [ %41, %30 ], [ null, %42 ]
  store ptr %44, ptr %4, align 8
  store i32 1, ptr %9, align 4
  br label %46

45:                                               ; preds = %15
  store ptr null, ptr %4, align 8
  store i32 1, ptr %9, align 4
  br label %46

46:                                               ; preds = %45, %43
  call void @llvm.lifetime.end.p0(i64 4, ptr %8) #10
  br label %70

47:                                               ; preds = %3
  %48 = load i32, ptr %7, align 4, !tbaa !8
  %49 = load ptr, ptr %5, align 8, !tbaa !3
  %50 = getelementptr inbounds nuw %struct.hwloc_topology, ptr %49, i32 0, i32 3
  %51 = load ptr, ptr %50, align 8, !tbaa !52
  %52 = load i32, ptr %6, align 4, !tbaa !8
  %53 = sext i32 %52 to i64
  %54 = getelementptr inbounds i32, ptr %51, i64 %53
  %55 = load i32, ptr %54, align 4, !tbaa !8
  %56 = icmp uge i32 %48, %55
  br i1 %56, label %57, label %58

57:                                               ; preds = %47
  store ptr null, ptr %4, align 8
  br label %70

58:                                               ; preds = %47
  %59 = load ptr, ptr %5, align 8, !tbaa !3
  %60 = getelementptr inbounds nuw %struct.hwloc_topology, ptr %59, i32 0, i32 4
  %61 = load ptr, ptr %60, align 8, !tbaa !34
  %62 = load i32, ptr %6, align 4, !tbaa !8
  %63 = sext i32 %62 to i64
  %64 = getelementptr inbounds ptr, ptr %61, i64 %63
  %65 = load ptr, ptr %64, align 8, !tbaa !35
  %66 = load i32, ptr %7, align 4, !tbaa !8
  %67 = zext i32 %66 to i64
  %68 = getelementptr inbounds nuw ptr, ptr %65, i64 %67
  %69 = load ptr, ptr %68, align 8, !tbaa !37
  store ptr %69, ptr %4, align 8
  br label %70

70:                                               ; preds = %58, %57, %46
  %71 = load ptr, ptr %4, align 8
  ret ptr %71
}

; Function Attrs: inlinehint nounwind uwtable
define internal ptr @hwloc_get_next_obj_by_depth(ptr noundef %0, i32 noundef %1, ptr noundef %2) #3 {
  %4 = alloca ptr, align 8
  %5 = alloca ptr, align 8
  %6 = alloca i32, align 4
  %7 = alloca ptr, align 8
  store ptr %0, ptr %5, align 8, !tbaa !3
  store i32 %1, ptr %6, align 4, !tbaa !8
  store ptr %2, ptr %7, align 8, !tbaa !37
  %8 = load ptr, ptr %7, align 8, !tbaa !37
  %9 = icmp ne ptr %8, null
  br i1 %9, label %14, label %10

10:                                               ; preds = %3
  %11 = load ptr, ptr %5, align 8, !tbaa !3
  %12 = load i32, ptr %6, align 4, !tbaa !8
  %13 = call ptr @hwloc_get_obj_by_depth(ptr noundef %11, i32 noundef %12, i32 noundef 0) #11
  store ptr %13, ptr %4, align 8
  br label %25

14:                                               ; preds = %3
  %15 = load ptr, ptr %7, align 8, !tbaa !37
  %16 = getelementptr inbounds nuw %struct.hwloc_obj, ptr %15, i32 0, i32 6
  %17 = load i32, ptr %16, align 8, !tbaa !46
  %18 = load i32, ptr %6, align 4, !tbaa !8
  %19 = icmp ne i32 %17, %18
  br i1 %19, label %20, label %21

20:                                               ; preds = %14
  store ptr null, ptr %4, align 8
  br label %25

21:                                               ; preds = %14
  %22 = load ptr, ptr %7, align 8, !tbaa !37
  %23 = getelementptr inbounds nuw %struct.hwloc_obj, ptr %22, i32 0, i32 8
  %24 = load ptr, ptr %23, align 8, !tbaa !47
  store ptr %24, ptr %4, align 8
  br label %25

25:                                               ; preds = %21, %20, %10
  %26 = load ptr, ptr %4, align 8
  ret ptr %26
}

; Function Attrs: inlinehint nounwind uwtable
define internal ptr @hwloc_get_next_obj_covering_cpuset_by_depth(ptr noundef %0, ptr noundef %1, i32 noundef %2, ptr noundef %3) #3 {
  %5 = alloca ptr, align 8
  %6 = alloca ptr, align 8
  %7 = alloca ptr, align 8
  %8 = alloca i32, align 4
  %9 = alloca ptr, align 8
  %10 = alloca ptr, align 8
  %11 = alloca i32, align 4
  store ptr %0, ptr %6, align 8, !tbaa !3
  store ptr %1, ptr %7, align 8, !tbaa !60
  store i32 %2, ptr %8, align 4, !tbaa !8
  store ptr %3, ptr %9, align 8, !tbaa !37
  call void @llvm.lifetime.start.p0(i64 8, ptr %10) #10
  %12 = load ptr, ptr %6, align 8, !tbaa !3
  %13 = load i32, ptr %8, align 4, !tbaa !8
  %14 = load ptr, ptr %9, align 8, !tbaa !37
  %15 = call ptr @hwloc_get_next_obj_by_depth(ptr noundef %12, i32 noundef %13, ptr noundef %14)
  store ptr %15, ptr %10, align 8, !tbaa !37
  %16 = load ptr, ptr %10, align 8, !tbaa !37
  %17 = icmp ne ptr %16, null
  br i1 %17, label %19, label %18

18:                                               ; preds = %4
  store ptr null, ptr %5, align 8
  store i32 1, ptr %11, align 4
  br label %39

19:                                               ; preds = %4
  br label %20

20:                                               ; preds = %33, %19
  %21 = load ptr, ptr %10, align 8, !tbaa !37
  %22 = icmp ne ptr %21, null
  br i1 %22, label %23, label %31

23:                                               ; preds = %20
  %24 = load ptr, ptr %7, align 8, !tbaa !60
  %25 = load ptr, ptr %10, align 8, !tbaa !37
  %26 = getelementptr inbounds nuw %struct.hwloc_obj, ptr %25, i32 0, i32 25
  %27 = load ptr, ptr %26, align 8, !tbaa !57
  %28 = call i32 @hwloc_bitmap_intersects(ptr noundef %24, ptr noundef %27) #11
  %29 = icmp ne i32 %28, 0
  %30 = xor i1 %29, true
  br label %31

31:                                               ; preds = %23, %20
  %32 = phi i1 [ false, %20 ], [ %30, %23 ]
  br i1 %32, label %33, label %37

33:                                               ; preds = %31
  %34 = load ptr, ptr %10, align 8, !tbaa !37
  %35 = getelementptr inbounds nuw %struct.hwloc_obj, ptr %34, i32 0, i32 8
  %36 = load ptr, ptr %35, align 8, !tbaa !47
  store ptr %36, ptr %10, align 8, !tbaa !37
  br label %20, !llvm.loop !100

37:                                               ; preds = %31
  %38 = load ptr, ptr %10, align 8, !tbaa !37
  store ptr %38, ptr %5, align 8
  store i32 1, ptr %11, align 4
  br label %39

39:                                               ; preds = %37, %18
  call void @llvm.lifetime.end.p0(i64 8, ptr %10) #10
  %40 = load ptr, ptr %5, align 8
  ret ptr %40
}

; Function Attrs: nounwind uwtable
define i32 @hwloc_get_type_depth(ptr noundef %0, i32 noundef %1) #0 {
  %3 = alloca i32, align 4
  %4 = alloca ptr, align 8
  %5 = alloca i32, align 4
  store ptr %0, ptr %4, align 8, !tbaa !3
  store i32 %1, ptr %5, align 4, !tbaa !8
  %6 = load i32, ptr %5, align 4, !tbaa !8
  %7 = icmp uge i32 %6, 20
  br i1 %7, label %8, label %9

8:                                                ; preds = %2
  store i32 -1, ptr %3, align 4
  br label %16

9:                                                ; preds = %2
  %10 = load ptr, ptr %4, align 8, !tbaa !3
  %11 = getelementptr inbounds nuw %struct.hwloc_topology, ptr %10, i32 0, i32 6
  %12 = load i32, ptr %5, align 4, !tbaa !8
  %13 = zext i32 %12 to i64
  %14 = getelementptr inbounds nuw [20 x i32], ptr %11, i64 0, i64 %13
  %15 = load i32, ptr %14, align 4, !tbaa !8
  store i32 %15, ptr %3, align 4
  br label %16

16:                                               ; preds = %9, %8
  %17 = load i32, ptr %3, align 4
  ret i32 %17
}

; Function Attrs: inlinehint nounwind uwtable
define internal ptr @hwloc_get_next_obj_covering_cpuset_by_type(ptr noundef %0, ptr noundef %1, i32 noundef %2, ptr noundef %3) #3 {
  %5 = alloca ptr, align 8
  %6 = alloca ptr, align 8
  %7 = alloca ptr, align 8
  %8 = alloca i32, align 4
  %9 = alloca ptr, align 8
  %10 = alloca i32, align 4
  %11 = alloca i32, align 4
  store ptr %0, ptr %6, align 8, !tbaa !3
  store ptr %1, ptr %7, align 8, !tbaa !60
  store i32 %2, ptr %8, align 4, !tbaa !8
  store ptr %3, ptr %9, align 8, !tbaa !37
  call void @llvm.lifetime.start.p0(i64 4, ptr %10) #10
  %12 = load ptr, ptr %6, align 8, !tbaa !3
  %13 = load i32, ptr %8, align 4, !tbaa !8
  %14 = call i32 @hwloc_get_type_depth(ptr noundef %12, i32 noundef %13)
  store i32 %14, ptr %10, align 4, !tbaa !8
  %15 = load i32, ptr %10, align 4, !tbaa !8
  %16 = icmp eq i32 %15, -1
  br i1 %16, label %20, label %17

17:                                               ; preds = %4
  %18 = load i32, ptr %10, align 4, !tbaa !8
  %19 = icmp eq i32 %18, -2
  br i1 %19, label %20, label %21

20:                                               ; preds = %17, %4
  store ptr null, ptr %5, align 8
  store i32 1, ptr %11, align 4
  br label %27

21:                                               ; preds = %17
  %22 = load ptr, ptr %6, align 8, !tbaa !3
  %23 = load ptr, ptr %7, align 8, !tbaa !60
  %24 = load i32, ptr %10, align 4, !tbaa !8
  %25 = load ptr, ptr %9, align 8, !tbaa !37
  %26 = call ptr @hwloc_get_next_obj_covering_cpuset_by_depth(ptr noundef %22, ptr noundef %23, i32 noundef %24, ptr noundef %25)
  store ptr %26, ptr %5, align 8
  store i32 1, ptr %11, align 4
  br label %27

27:                                               ; preds = %21, %20
  call void @llvm.lifetime.end.p0(i64 4, ptr %10) #10
  %28 = load ptr, ptr %5, align 8
  ret ptr %28
}

; Function Attrs: nounwind uwtable
define i32 @hwloc_bitmap_singlify_per_core(ptr noundef %0, ptr noundef %1, i32 noundef %2) #0 {
  %4 = alloca ptr, align 8
  %5 = alloca ptr, align 8
  %6 = alloca i32, align 4
  %7 = alloca ptr, align 8
  %8 = alloca i32, align 4
  %9 = alloca i32, align 4
  store ptr %0, ptr %4, align 8, !tbaa !3
  store ptr %1, ptr %5, align 8, !tbaa !60
  store i32 %2, ptr %6, align 4, !tbaa !8
  call void @llvm.lifetime.start.p0(i64 8, ptr %7) #10
  store ptr null, ptr %7, align 8, !tbaa !37
  br label %10

10:                                               ; preds = %56, %3
  %11 = load ptr, ptr %4, align 8, !tbaa !3
  %12 = load ptr, ptr %5, align 8, !tbaa !60
  %13 = load ptr, ptr %7, align 8, !tbaa !37
  %14 = call ptr @hwloc_get_next_obj_covering_cpuset_by_type(ptr noundef %11, ptr noundef %12, i32 noundef 3, ptr noundef %13)
  store ptr %14, ptr %7, align 8, !tbaa !37
  %15 = icmp ne ptr %14, null
  br i1 %15, label %16, label %57

16:                                               ; preds = %10
  call void @llvm.lifetime.start.p0(i64 4, ptr %8) #10
  store i32 0, ptr %8, align 4, !tbaa !8
  call void @llvm.lifetime.start.p0(i64 4, ptr %9) #10
  store i32 -1, ptr %9, align 4, !tbaa !8
  br label %17

17:                                               ; preds = %55, %16
  %18 = load ptr, ptr %7, align 8, !tbaa !37
  %19 = getelementptr inbounds nuw %struct.hwloc_obj, ptr %18, i32 0, i32 25
  %20 = load ptr, ptr %19, align 8, !tbaa !57
  %21 = load i32, ptr %9, align 4, !tbaa !8
  %22 = call i32 @hwloc_bitmap_next(ptr noundef %20, i32 noundef %21) #11
  store i32 %22, ptr %9, align 4, !tbaa !8
  %23 = load i32, ptr %9, align 4, !tbaa !8
  %24 = icmp eq i32 %23, -1
  br i1 %24, label %25, label %32

25:                                               ; preds = %17
  %26 = load ptr, ptr %5, align 8, !tbaa !60
  %27 = load ptr, ptr %5, align 8, !tbaa !60
  %28 = load ptr, ptr %7, align 8, !tbaa !37
  %29 = getelementptr inbounds nuw %struct.hwloc_obj, ptr %28, i32 0, i32 25
  %30 = load ptr, ptr %29, align 8, !tbaa !57
  %31 = call i32 @hwloc_bitmap_andnot(ptr noundef %26, ptr noundef %27, ptr noundef %30)
  br label %56

32:                                               ; preds = %17
  %33 = load ptr, ptr %5, align 8, !tbaa !60
  %34 = load i32, ptr %9, align 4, !tbaa !8
  %35 = call i32 @hwloc_bitmap_isset(ptr noundef %33, i32 noundef %34) #11
  %36 = icmp ne i32 %35, 0
  br i1 %36, label %37, label %54

37:                                               ; preds = %32
  %38 = load i32, ptr %8, align 4, !tbaa !8
  %39 = load i32, ptr %6, align 4, !tbaa !8
  %40 = icmp eq i32 %38, %39
  br i1 %40, label %41, label %51

41:                                               ; preds = %37
  %42 = load ptr, ptr %5, align 8, !tbaa !60
  %43 = load ptr, ptr %5, align 8, !tbaa !60
  %44 = load ptr, ptr %7, align 8, !tbaa !37
  %45 = getelementptr inbounds nuw %struct.hwloc_obj, ptr %44, i32 0, i32 25
  %46 = load ptr, ptr %45, align 8, !tbaa !57
  %47 = call i32 @hwloc_bitmap_andnot(ptr noundef %42, ptr noundef %43, ptr noundef %46)
  %48 = load ptr, ptr %5, align 8, !tbaa !60
  %49 = load i32, ptr %9, align 4, !tbaa !8
  %50 = call i32 @hwloc_bitmap_set(ptr noundef %48, i32 noundef %49)
  br label %56

51:                                               ; preds = %37
  %52 = load i32, ptr %8, align 4, !tbaa !8
  %53 = add i32 %52, 1
  store i32 %53, ptr %8, align 4, !tbaa !8
  br label %54

54:                                               ; preds = %51, %32
  br label %55

55:                                               ; preds = %54
  br i1 true, label %17, label %56

56:                                               ; preds = %55, %41, %25
  call void @llvm.lifetime.end.p0(i64 4, ptr %9) #10
  call void @llvm.lifetime.end.p0(i64 4, ptr %8) #10
  br label %10, !llvm.loop !91

57:                                               ; preds = %10
  call void @llvm.lifetime.end.p0(i64 8, ptr %7) #10
  ret i32 0
}