; Function Attrs: nounwind uwtable
define noundef i32 @hwloc_bitmap_singlify_per_core(ptr noundef readonly captures(none) %0, ptr noundef %1, i32 noundef %2) local_unnamed_addr #7 {
  %4 = getelementptr inbounds nuw i8, ptr %0, i64 52
  %5 = load i32, ptr %4, align 4, !tbaa !3
  %or.cond.i31 = icmp ugt i32 %5, -3
  br i1 %or.cond.i31, label %.loopexit, label %.lr.ph33

.lr.ph33:                                         ; preds = %3
  %6 = getelementptr inbounds nuw i8, ptr %0, i64 4
  %7 = getelementptr inbounds nuw i8, ptr %0, i64 256
  %8 = getelementptr inbounds nuw i8, ptr %0, i64 16
  %9 = getelementptr inbounds nuw i8, ptr %0, i64 24
  br label %10

10:                                               ; preds = %.lr.ph33, %56
  %11 = phi i32 [ %5, %.lr.ph33 ], [ %57, %56 ]
  %.01932 = phi ptr [ null, %.lr.ph33 ], [ %.015.i.i, %56 ]
  %.not.i.i.i = icmp eq ptr %.01932, null
  br i1 %.not.i.i.i, label %12, label %31

12:                                               ; preds = %10
  %13 = load i32, ptr %6, align 4, !tbaa !7
  %.not.i.i.i.i = icmp ult i32 %11, %13
  br i1 %.not.i.i.i.i, label %23, label %14

14:                                               ; preds = %12
  %15 = icmp ugt i32 %11, -9
  br i1 %15, label %16, label %.loopexit

16:                                               ; preds = %14
  %17 = sub nuw nsw i32 -3, %11
  %18 = zext nneg i32 %17 to i64
  %19 = getelementptr inbounds nuw [6 x %struct.hwloc_special_level_s], ptr %7, i64 0, i64 %18
  %20 = load i32, ptr %19, align 8, !tbaa !41
  %.not8.i.i.i = icmp eq i32 %20, 0
  br i1 %.not8.i.i.i, label %.loopexit, label %21

21:                                               ; preds = %16
  %22 = getelementptr inbounds nuw i8, ptr %19, i64 8
  br label %.sink.split.i.i.i.i

23:                                               ; preds = %12
  %24 = load ptr, ptr %8, align 8, !tbaa !43
  %25 = sext i32 %11 to i64
  %26 = getelementptr inbounds i32, ptr %24, i64 %25
  %27 = load i32, ptr %26, align 4, !tbaa !3
  %.not21.i.not.i.i.i = icmp eq i32 %27, 0
  br i1 %.not21.i.not.i.i.i, label %.loopexit, label %28

28:                                               ; preds = %23
  %29 = load ptr, ptr %9, align 8, !tbaa !32
  %30 = getelementptr inbounds ptr, ptr %29, i64 %25
  br label %.sink.split.i.i.i.i

.sink.split.i.i.i.i:                              ; preds = %28, %21
  %.sink22.in.i.i.i.i = phi ptr [ %22, %21 ], [ %30, %28 ]
  %.sink22.i.i.i.i = load ptr, ptr %.sink22.in.i.i.i.i, align 8, !tbaa !33
  br label %hwloc_get_next_obj_by_depth.exit.i.i

31:                                               ; preds = %10
  %32 = getelementptr inbounds nuw i8, ptr %.01932, i64 48
  %33 = load i32, ptr %32, align 8, !tbaa !47
  %.not7.i.i.i = icmp eq i32 %33, %11
  br i1 %.not7.i.i.i, label %34, label %.loopexit

34:                                               ; preds = %31
  %35 = getelementptr inbounds nuw i8, ptr %.01932, i64 56
  br label %hwloc_get_next_obj_by_depth.exit.i.i

hwloc_get_next_obj_by_depth.exit.i.i:             ; preds = %34, %.sink.split.i.i.i.i
  %.0.i.in.i.i = phi ptr [ %35, %34 ], [ %.sink22.i.i.i.i, %.sink.split.i.i.i.i ]
  %.0.i.i.i = load ptr, ptr %.0.i.in.i.i, align 8, !tbaa !35
  %.not.i.i = icmp eq ptr %.0.i.i.i, null
  br i1 %.not.i.i, label %.loopexit, label %.preheader.i.i

.preheader.i.i:                                   ; preds = %hwloc_get_next_obj_by_depth.exit.i.i, %41
  %.015.i.i = phi ptr [ %43, %41 ], [ %.0.i.i.i, %hwloc_get_next_obj_by_depth.exit.i.i ]
  %36 = getelementptr inbounds nuw i8, ptr %.015.i.i, i64 184
  %37 = load ptr, ptr %36, align 8, !tbaa !53
  %38 = tail call i32 @hwloc_bitmap_intersects(ptr noundef readonly %1, ptr noundef %37) #19
  %.not12.i.i = icmp eq i32 %38, 0
  br i1 %.not12.i.i, label %41, label %hwloc_get_next_obj_covering_cpuset_by_type.exit.preheader

hwloc_get_next_obj_covering_cpuset_by_type.exit.preheader: ; preds = %.preheader.i.i
  %39 = tail call i32 @hwloc_bitmap_next(ptr noundef %37, i32 noundef -1) #19
  %40 = icmp eq i32 %39, -1
  br i1 %40, label %hwloc_get_next_obj_covering_cpuset_by_type.exit._crit_edge, label %.lr.ph

41:                                               ; preds = %.preheader.i.i
  %42 = getelementptr inbounds nuw i8, ptr %.015.i.i, i64 56
  %43 = load ptr, ptr %42, align 8, !tbaa !48
  %.not11.i.i = icmp eq ptr %43, null
  br i1 %.not11.i.i, label %.loopexit, label %.preheader.i.i, !llvm.loop !82

hwloc_get_next_obj_covering_cpuset_by_type.exit._crit_edge: ; preds = %hwloc_get_next_obj_covering_cpuset_by_type.exit, %hwloc_get_next_obj_covering_cpuset_by_type.exit.preheader
  %44 = tail call i32 @hwloc_bitmap_andnot(ptr noundef %1, ptr noundef %1, ptr noundef %37) #20
  br label %56

.lr.ph:                                           ; preds = %hwloc_get_next_obj_covering_cpuset_by_type.exit.preheader, %hwloc_get_next_obj_covering_cpuset_by_type.exit
  %45 = phi i32 [ %54, %hwloc_get_next_obj_covering_cpuset_by_type.exit ], [ %39, %hwloc_get_next_obj_covering_cpuset_by_type.exit.preheader ]
  %.01830 = phi i32 [ %.1, %hwloc_get_next_obj_covering_cpuset_by_type.exit ], [ 0, %hwloc_get_next_obj_covering_cpuset_by_type.exit.preheader ]
  %46 = tail call i32 @hwloc_bitmap_isset(ptr noundef %1, i32 noundef %45) #19
  %.not22 = icmp eq i32 %46, 0
  br i1 %.not22, label %hwloc_get_next_obj_covering_cpuset_by_type.exit, label %47

47:                                               ; preds = %.lr.ph
  %48 = icmp eq i32 %.01830, %2
  br i1 %48, label %49, label %52

49:                                               ; preds = %47
  %50 = tail call i32 @hwloc_bitmap_andnot(ptr noundef %1, ptr noundef %1, ptr noundef %37) #20
  %51 = tail call i32 @hwloc_bitmap_set(ptr noundef %1, i32 noundef %45) #20
  br label %56

52:                                               ; preds = %47
  %53 = add i32 %.01830, 1
  br label %hwloc_get_next_obj_covering_cpuset_by_type.exit

hwloc_get_next_obj_covering_cpuset_by_type.exit:  ; preds = %.lr.ph, %52
  %.1 = phi i32 [ %53, %52 ], [ %.01830, %.lr.ph ]
  %54 = tail call i32 @hwloc_bitmap_next(ptr noundef %37, i32 noundef %45) #19
  %55 = icmp eq i32 %54, -1
  br i1 %55, label %hwloc_get_next_obj_covering_cpuset_by_type.exit._crit_edge, label %.lr.ph

56:                                               ; preds = %49, %hwloc_get_next_obj_covering_cpuset_by_type.exit._crit_edge
  %57 = load i32, ptr %4, align 4, !tbaa !3
  %or.cond.i = icmp ugt i32 %57, -3
  br i1 %or.cond.i, label %.loopexit, label %10, !llvm.loop !83

.loopexit:                                        ; preds = %23, %14, %16, %31, %hwloc_get_next_obj_by_depth.exit.i.i, %56, %41, %3
  ret i32 0
}